target datalayout = "e-m:e-p270:32:32-p271:32:32-p272:64:64-i64:64-i128:128-f80:128-n8:16:32:64-S128"
target triple = "x86_64-pc-linux-gnu"

%struct.lxb_encoding_encode_t = type { ptr, ptr, i64, i64, ptr, i64, i32 }

@.str.2 = private unnamed_addr constant [4 x i8] c"\1B(B\00", align 1

; Function Attrs: nounwind uwtable
define hidden i32 @lxb_encoding_encode_iso_2022_jp_eof(ptr noundef %0) #0 {
  %2 = alloca i32, align 4
  %3 = alloca ptr, align 8
  store ptr %0, ptr %3, align 8
  %4 = load ptr, ptr %3, align 8
  %5 = getelementptr inbounds %struct.lxb_encoding_encode_t, ptr %4, i32 0, i32 6
  %6 = load i32, ptr %5, align 8
  %7 = icmp ne i32 %6, 0
  br i1 %7, label %8, label %30

8:                                                ; preds = %1
  %9 = load ptr, ptr %3, align 8
  %10 = getelementptr inbounds %struct.lxb_encoding_encode_t, ptr %9, i32 0, i32 3
  %11 = load i64, ptr %10, align 8
  %12 = add i64 %11, 3
  %13 = load ptr, ptr %3, align 8
  %14 = getelementptr inbounds %struct.lxb_encoding_encode_t, ptr %13, i32 0, i32 2
  %15 = load i64, ptr %14, align 8
  %16 = icmp ugt i64 %12, %15
  br i1 %16, label %17, label %18

17:                                               ; preds = %8
  store i32 15, ptr %2, align 4
  br label %31

18:                                               ; preds = %8
  %19 = load ptr, ptr %3, align 8
  %20 = getelementptr inbounds %struct.lxb_encoding_encode_t, ptr %19, i32 0, i32 1
  %21 = load ptr, ptr %20, align 8
  %22 = load ptr, ptr %3, align 8
  %23 = getelementptr inbounds %struct.lxb_encoding_encode_t, ptr %22, i32 0, i32 3
  %24 = load i64, ptr %23, align 8
  %25 = getelementptr inbounds i8, ptr %21, i64 %24
  call void @llvm.memcpy.p0.p0.i64(ptr align 1 %25, ptr align 1 @.str.2, i64 3, i1 false)
  %26 = load ptr, ptr %3, align 8
  %27 = getelementptr inbounds %struct.lxb_encoding_encode_t, ptr %26, i32 0, i32 3
  %28 = load i64, ptr %27, align 8
  %29 = add i64 %28, 3
  store i64 %29, ptr %27, align 8
  br label %30

30:                                               ; preds = %18, %1
  store i32 0, ptr %2, align 4
  br label %31

31:                                               ; preds = %30, %17
  %32 = load i32, ptr %2, align 4
  ret i32 %32
}