; Function Attrs: mustprogress nofree norecurse nosync nounwind willreturn memory(readwrite, inaccessiblemem: none) uwtable
define hidden noundef i32 @lxb_encoding_encode_iso_2022_jp_eof(ptr nocapture noundef %0) local_unnamed_addr #3 {
  %2 = getelementptr inbounds i8, ptr %0, i64 48
  %3 = load i32, ptr %2, align 8
  %.not = icmp eq i32 %3, 0
  br i1 %.not, label %17, label %4

4:                                                ; preds = %1
  %5 = getelementptr inbounds i8, ptr %0, i64 24
  %6 = load i64, ptr %5, align 8
  %7 = add i64 %6, 3
  %8 = getelementptr inbounds i8, ptr %0, i64 16
  %9 = load i64, ptr %8, align 8
  %10 = icmp ugt i64 %7, %9
  br i1 %10, label %17, label %11

11:                                               ; preds = %4
  %12 = getelementptr inbounds i8, ptr %0, i64 8
  %13 = load ptr, ptr %12, align 8
  %14 = getelementptr inbounds i8, ptr %13, i64 %6
  tail call void @llvm.memcpy.p0.p0.i64(ptr noundef nonnull align 1 dereferenceable(3) %14, ptr noundef nonnull align 1 dereferenceable(3) @.str.2, i64 3, i1 false)
  %15 = load i64, ptr %5, align 8
  %16 = add i64 %15, 3
  store i64 %16, ptr %5, align 8
  br label %17

17:                                               ; preds = %1, %11, %4
  %.0 = phi i32 [ 15, %4 ], [ 0, %11 ], [ 0, %1 ]
  ret i32 %.0
}